target datalayout = "e-m:e-p270:32:32-p271:32:32-p272:64:64-i64:64-i128:128-f80:128-n8:16:32:64-S128"
target triple = "x86_64-pc-linux-gnu"

%struct.AVFilterContext = type { ptr, ptr, ptr, ptr, ptr, i32, ptr, ptr, i32, ptr, ptr, i32, i32, ptr, ptr, ptr, ptr, i32, ptr, i32, i32 }
%struct.SetPTSContext = type { ptr, ptr, ptr, i32, [21 x double], i32 }

@.str.13 = private unnamed_addr constant [37 x i8] c"Error while parsing expression '%s'\0A\00", align 1

; Function Attrs: cold nounwind optsize uwtable
define internal i32 @init(ptr noundef %0) #0 {
  %2 = alloca i32, align 4
  %3 = alloca ptr, align 8
  %4 = alloca ptr, align 8
  %5 = alloca i32, align 4
  %6 = alloca i32, align 4
  store ptr %0, ptr %3, align 8, !tbaa !4
  call void @llvm.lifetime.start.p0(i64 8, ptr %4) #10
  %7 = load ptr, ptr %3, align 8, !tbaa !4
  %8 = getelementptr inbounds nuw %struct.AVFilterContext, ptr %7, i32 0, i32 9
  %9 = load ptr, ptr %8, align 8, !tbaa !9
  store ptr %9, ptr %4, align 8, !tbaa !22
  call void @llvm.lifetime.start.p0(i64 4, ptr %5) #10
  %10 = load ptr, ptr %4, align 8, !tbaa !22
  %11 = getelementptr inbounds nuw %struct.SetPTSContext, ptr %10, i32 0, i32 2
  %12 = load ptr, ptr %4, align 8, !tbaa !22
  %13 = getelementptr inbounds nuw %struct.SetPTSContext, ptr %12, i32 0, i32 1
  %14 = load ptr, ptr %13, align 8, !tbaa !24
  %15 = load ptr, ptr %3, align 8, !tbaa !4
  %16 = call i32 @av_expr_parse(ptr noundef %11, ptr noundef %14, ptr noundef @var_names, ptr noundef null, ptr noundef null, ptr noundef null, ptr noundef null, i32 noundef 0, ptr noundef %15)
  store i32 %16, ptr %5, align 4, !tbaa !27
  %17 = icmp slt i32 %16, 0
  br i1 %17, label %18, label %24

18:                                               ; preds = %1
  %19 = load ptr, ptr %3, align 8, !tbaa !4
  %20 = load ptr, ptr %4, align 8, !tbaa !22
  %21 = getelementptr inbounds nuw %struct.SetPTSContext, ptr %20, i32 0, i32 1
  %22 = load ptr, ptr %21, align 8, !tbaa !24
  call void (ptr, i32, ptr, ...) @av_log(ptr noundef %19, i32 noundef 16, ptr noundef @.str.13, ptr noundef %22)
  %23 = load i32, ptr %5, align 4, !tbaa !27
  store i32 %23, ptr %2, align 4
  store i32 1, ptr %6, align 4
  br label %52

24:                                               ; preds = %1
  %25 = load ptr, ptr %4, align 8, !tbaa !22
  %26 = getelementptr inbounds nuw %struct.SetPTSContext, ptr %25, i32 0, i32 4
  %27 = getelementptr inbounds [21 x double], ptr %26, i64 0, i64 2
  store double 0.000000e+00, ptr %27, align 8, !tbaa !28
  %28 = load ptr, ptr %4, align 8, !tbaa !22
  %29 = getelementptr inbounds nuw %struct.SetPTSContext, ptr %28, i32 0, i32 4
  %30 = getelementptr inbounds [21 x double], ptr %29, i64 0, i64 17
  store double 0.000000e+00, ptr %30, align 8, !tbaa !28
  %31 = load ptr, ptr %4, align 8, !tbaa !22
  %32 = getelementptr inbounds nuw %struct.SetPTSContext, ptr %31, i32 0, i32 4
  %33 = getelementptr inbounds [21 x double], ptr %32, i64 0, i64 5
  store double 0x7FF8000000000000, ptr %33, align 8, !tbaa !28
  %34 = load ptr, ptr %4, align 8, !tbaa !22
  %35 = getelementptr inbounds nuw %struct.SetPTSContext, ptr %34, i32 0, i32 4
  %36 = getelementptr inbounds [21 x double], ptr %35, i64 0, i64 6
  store double 0x7FF8000000000000, ptr %36, align 8, !tbaa !28
  %37 = load ptr, ptr %4, align 8, !tbaa !22
  %38 = getelementptr inbounds nuw %struct.SetPTSContext, ptr %37, i32 0, i32 4
  %39 = getelementptr inbounds [21 x double], ptr %38, i64 0, i64 7
  store double 0x7FF8000000000000, ptr %39, align 8, !tbaa !28
  %40 = load ptr, ptr %4, align 8, !tbaa !22
  %41 = getelementptr inbounds nuw %struct.SetPTSContext, ptr %40, i32 0, i32 4
  %42 = getelementptr inbounds [21 x double], ptr %41, i64 0, i64 8
  store double 0x7FF8000000000000, ptr %42, align 8, !tbaa !28
  %43 = load ptr, ptr %4, align 8, !tbaa !22
  %44 = getelementptr inbounds nuw %struct.SetPTSContext, ptr %43, i32 0, i32 4
  %45 = getelementptr inbounds [21 x double], ptr %44, i64 0, i64 11
  store double 0x7FF8000000000000, ptr %45, align 8, !tbaa !28
  %46 = load ptr, ptr %4, align 8, !tbaa !22
  %47 = getelementptr inbounds nuw %struct.SetPTSContext, ptr %46, i32 0, i32 4
  %48 = getelementptr inbounds [21 x double], ptr %47, i64 0, i64 12
  store double 0x7FF8000000000000, ptr %48, align 8, !tbaa !28
  %49 = load ptr, ptr %4, align 8, !tbaa !22
  %50 = getelementptr inbounds nuw %struct.SetPTSContext, ptr %49, i32 0, i32 4
  %51 = getelementptr inbounds [21 x double], ptr %50, i64 0, i64 20
  store double 0x7FF8000000000000, ptr %51, align 8, !tbaa !28
  store i32 0, ptr %2, align 4
  store i32 1, ptr %6, align 4
  br label %52

52:                                               ; preds = %24, %18
  call void @llvm.lifetime.end.p0(i64 4, ptr %5) #10
  call void @llvm.lifetime.end.p0(i64 8, ptr %4) #10
  %53 = load i32, ptr %2, align 4
  ret i32 %53
}