; Function Attrs: cold nounwind optsize uwtable
define internal range(i32 -2147483648, 1) i32 @init(ptr noundef %0) #0 {
  %2 = getelementptr inbounds nuw i8, ptr %0, i64 72
  %3 = load ptr, ptr %2, align 8, !tbaa !4
  %4 = getelementptr inbounds nuw i8, ptr %3, i64 16
  %5 = getelementptr inbounds nuw i8, ptr %3, i64 8
  %6 = load ptr, ptr %5, align 8, !tbaa !20
  %7 = tail call i32 @av_expr_parse(ptr noundef nonnull %4, ptr noundef %6, ptr noundef nonnull @var_names, ptr noundef null, ptr noundef null, ptr noundef null, ptr noundef null, i32 noundef 0, ptr noundef %0) #8
  %8 = icmp slt i32 %7, 0
  br i1 %8, label %9, label %11

9:                                                ; preds = %1
  %10 = load ptr, ptr %5, align 8, !tbaa !20
  tail call void (ptr, i32, ptr, ...) @av_log(ptr noundef nonnull %0, i32 noundef 16, ptr noundef nonnull @.str.13, ptr noundef %10) #8
  br label %21

11:                                               ; preds = %1
  %12 = getelementptr inbounds nuw i8, ptr %3, i64 48
  store double 0.000000e+00, ptr %12, align 8, !tbaa !23
  %13 = getelementptr inbounds nuw i8, ptr %3, i64 168
  store double 0.000000e+00, ptr %13, align 8, !tbaa !23
  %14 = getelementptr inbounds nuw i8, ptr %3, i64 72
  store double 0x7FF8000000000000, ptr %14, align 8, !tbaa !23
  %15 = getelementptr inbounds nuw i8, ptr %3, i64 80
  store double 0x7FF8000000000000, ptr %15, align 8, !tbaa !23
  %16 = getelementptr inbounds nuw i8, ptr %3, i64 88
  store double 0x7FF8000000000000, ptr %16, align 8, !tbaa !23
  %17 = getelementptr inbounds nuw i8, ptr %3, i64 96
  store double 0x7FF8000000000000, ptr %17, align 8, !tbaa !23
  %18 = getelementptr inbounds nuw i8, ptr %3, i64 120
  store double 0x7FF8000000000000, ptr %18, align 8, !tbaa !23
  %19 = getelementptr inbounds nuw i8, ptr %3, i64 128
  store double 0x7FF8000000000000, ptr %19, align 8, !tbaa !23
  %20 = getelementptr inbounds nuw i8, ptr %3, i64 192
  store double 0x7FF8000000000000, ptr %20, align 8, !tbaa !23
  br label %21

21:                                               ; preds = %11, %9
  %.0 = phi i32 [ %7, %9 ], [ 0, %11 ]
  ret i32 %.0
}